target datalayout = "e-m:e-p270:32:32-p271:32:32-p272:64:64-i64:64-i128:128-f80:128-n8:16:32:64-S128"
target triple = "x86_64-pc-linux-gnu"

%"class.datalog::mk_slice" = type { %"class.datalog::rule_transformer::plugin", ptr, ptr, ptr, %class.svector, %class.svector, %class.ref_vector, %class.svector, %class.obj_map, %class.obj_map.1, %class.ref_vector.6, ptr, ptr }
%"class.datalog::rule_transformer::plugin" = type { ptr, i32, i8, ptr }
%class.ref_vector = type { %class.ref_vector_core }
%class.ref_vector_core = type { %class.ref_manager_wrapper, %class.ptr_vector }
%class.ref_manager_wrapper = type { ptr }
%class.ptr_vector = type { %class.vector.0 }
%class.vector.0 = type { ptr }
%class.svector = type { %class.vector }
%class.vector = type { ptr }
%class.obj_map = type { %class.core_hashtable }
%class.core_hashtable = type <{ ptr, i32, i32, i32, [4 x i8] }>
%class.obj_map.1 = type { %class.core_hashtable.2 }
%class.core_hashtable.2 = type <{ ptr, i32, i32, i32, [4 x i8] }>
%class.ref_vector.6 = type { %class.ref_vector_core.7 }
%class.ref_vector_core.7 = type { %class.ref_manager_wrapper.8, %class.ptr_vector.9 }
%class.ref_manager_wrapper.8 = type { ptr }
%class.ptr_vector.9 = type { %class.vector.10 }
%class.vector.10 = type { ptr }

; Function Attrs: mustprogress nounwind uwtable
define linkonce_odr hidden noundef nonnull align 1 dereferenceable(1) ptr @_ZN6vectorIbLb0EjEixEj(ptr noundef nonnull align 8 dereferenceable(8) %0, i32 noundef %1) #5 comdat align 2 {
  %3 = alloca ptr, align 8
  %4 = alloca i32, align 4
  store ptr %0, ptr %3, align 8, !tbaa !241
  store i32 %1, ptr %4, align 4, !tbaa !50
  %5 = load ptr, ptr %3, align 8
  %6 = getelementptr inbounds nuw %class.vector, ptr %5, i32 0, i32 0
  %7 = load ptr, ptr %6, align 8, !tbaa !289
  %8 = load i32, ptr %4, align 4, !tbaa !50
  %9 = zext i32 %8 to i64
  %10 = getelementptr inbounds nuw i8, ptr %7, i64 %9
  ret ptr %10
}

; Function Attrs: mustprogress nounwind uwtable
define linkonce_odr hidden noundef i32 @_ZNK6vectorIbLb0EjE4sizeEv(ptr noundef nonnull align 8 dereferenceable(8) %0) #5 comdat align 2 {
  %2 = alloca i32, align 4
  %3 = alloca ptr, align 8
  store ptr %0, ptr %3, align 8, !tbaa !241
  %4 = load ptr, ptr %3, align 8
  %5 = getelementptr inbounds nuw %class.vector, ptr %4, i32 0, i32 0
  %6 = load ptr, ptr %5, align 8, !tbaa !289
  %7 = icmp eq ptr %6, null
  br i1 %7, label %8, label %9

8:                                                ; preds = %1
  store i32 0, ptr %2, align 4
  br label %14

9:                                                ; preds = %1
  %10 = getelementptr inbounds nuw %class.vector, ptr %4, i32 0, i32 0
  %11 = load ptr, ptr %10, align 8, !tbaa !289
  %12 = getelementptr inbounds i32, ptr %11, i64 -1
  %13 = load i32, ptr %12, align 4, !tbaa !50
  store i32 %13, ptr %2, align 4
  br label %14

14:                                               ; preds = %9, %8
  %15 = load i32, ptr %2, align 4
  ret i32 %15
}

; Function Attrs: mustprogress uwtable
define hidden noundef zeroext i1 @_ZN7datalog8mk_slice9is_outputEj(ptr noundef nonnull align 8 dereferenceable(168) %0, i32 noundef %1) #4 align 2 {
  %3 = alloca ptr, align 8
  %4 = alloca i32, align 4
  store ptr %0, ptr %3, align 8, !tbaa !3
  store i32 %1, ptr %4, align 4, !tbaa !50
  %5 = load ptr, ptr %3, align 8
  %6 = load i32, ptr %4, align 4, !tbaa !50
  %7 = getelementptr inbounds nuw %"class.datalog::mk_slice", ptr %5, i32 0, i32 5
  %8 = call noundef i32 @_ZNK6vectorIbLb0EjE4sizeEv(ptr noundef nonnull align 8 dereferenceable(8) %7)
  %9 = icmp ult i32 %6, %8
  br i1 %9, label %10, label %23

10:                                               ; preds = %2
  %11 = getelementptr inbounds nuw %"class.datalog::mk_slice", ptr %5, i32 0, i32 5
  %12 = load i32, ptr %4, align 4, !tbaa !50
  %13 = call noundef nonnull align 1 dereferenceable(1) ptr @_ZN6vectorIbLb0EjEixEj(ptr noundef nonnull align 8 dereferenceable(8) %11, i32 noundef %12)
  %14 = load i8, ptr %13, align 1, !tbaa !51, !range !53, !noundef !54
  %15 = trunc i8 %14 to i1
  br i1 %15, label %16, label %23

16:                                               ; preds = %10
  %17 = getelementptr inbounds nuw %"class.datalog::mk_slice", ptr %5, i32 0, i32 4
  %18 = load i32, ptr %4, align 4, !tbaa !50
  %19 = call noundef nonnull align 1 dereferenceable(1) ptr @_ZN6vectorIbLb0EjEixEj(ptr noundef nonnull align 8 dereferenceable(8) %17, i32 noundef %18)
  %20 = load i8, ptr %19, align 1, !tbaa !51, !range !53, !noundef !54
  %21 = trunc i8 %20 to i1
  %22 = xor i1 %21, true
  br label %23

23:                                               ; preds = %16, %10, %2
  %24 = phi i1 [ false, %10 ], [ false, %2 ], [ %22, %16 ]
  ret i1 %24
}