; Function Attrs: mustprogress nofree norecurse nosync nounwind willreturn memory(read, inaccessiblemem: none) uwtable
define hidden noundef zeroext i1 @_ZN7datalog8mk_slice9is_outputEj(ptr noundef nonnull readonly align 8 captures(none) dereferenceable(168) %0, i32 noundef %1) local_unnamed_addr #7 align 2 {
  %3 = getelementptr inbounds nuw i8, ptr %0, i64 56
  %4 = load ptr, ptr %3, align 8, !tbaa !229
  %5 = icmp eq ptr %4, null
  br i1 %5, label %_ZNK6vectorIbLb0EjE4sizeEv.exit.thread, label %_ZNK6vectorIbLb0EjE4sizeEv.exit

_ZNK6vectorIbLb0EjE4sizeEv.exit:                  ; preds = %2
  %6 = getelementptr inbounds i8, ptr %4, i64 -4
  %7 = load i32, ptr %6, align 4, !tbaa !231
  %8 = icmp ult i32 %1, %7
  br i1 %8, label %9, label %_ZNK6vectorIbLb0EjE4sizeEv.exit.thread

9:                                                ; preds = %_ZNK6vectorIbLb0EjE4sizeEv.exit
  %10 = zext i32 %1 to i64
  %11 = getelementptr inbounds nuw i8, ptr %4, i64 %10
  %12 = load i8, ptr %11, align 1, !tbaa !275, !range !279, !noundef !280
  %13 = trunc nuw i8 %12 to i1
  br i1 %13, label %14, label %_ZNK6vectorIbLb0EjE4sizeEv.exit.thread

14:                                               ; preds = %9
  %15 = getelementptr inbounds nuw i8, ptr %0, i64 48
  %16 = load ptr, ptr %15, align 8, !tbaa !229
  %17 = getelementptr inbounds nuw i8, ptr %16, i64 %10
  %18 = load i8, ptr %17, align 1, !tbaa !275, !range !279, !noundef !280
  %19 = trunc nuw i8 %18 to i1
  %20 = xor i1 %19, true
  br label %_ZNK6vectorIbLb0EjE4sizeEv.exit.thread

_ZNK6vectorIbLb0EjE4sizeEv.exit.thread:           ; preds = %2, %14, %9, %_ZNK6vectorIbLb0EjE4sizeEv.exit
  %21 = phi i1 [ false, %9 ], [ false, %_ZNK6vectorIbLb0EjE4sizeEv.exit ], [ %20, %14 ], [ false, %2 ]
  ret i1 %21
}